target datalayout = "e-m:e-p270:32:32-p271:32:32-p272:64:64-i64:64-i128:128-f80:128-n8:16:32:64-S128"
target triple = "x86_64-pc-linux-gnu"

%struct.nstime_t = type { i64, i32 }
%struct._packet_info = type { ptr, ptr, i32, i32, %struct.nstime_t, %struct.nstime_t, %struct.nstime_t, i8, ptr, ptr, ptr, ptr, %struct._address, %struct._address, %struct._address, %struct._address, %struct._address, %struct._address, i32, ptr, i8, [3 x i8], %struct.anon, i32, i32, i32, i32, ptr, i8, ptr, ptr, i16, i16, i32, i32, i16, i32, i32, ptr, ptr, ptr, i8, i8, i16, i16, i16, i32, i16, i16, ptr, ptr, ptr, ptr, ptr, i32, i32 }
%struct._address = type { i32, i32, ptr, ptr }
%struct.anon = type { i8, [3 x i8] }
%struct._frame_data = type <{ i32, i32, i32, i32, i32, [4 x i8], i64, ptr, ptr, ptr, i8, i16, [5 x i8], %struct.nstime_t, %struct.nstime_t, i32, i32 }>
%struct.ue_parameters_t = type { i8, i8, i8, i8, %struct.drx_state_t }
%struct.drx_state_t = type { %struct.drx_config_t, %struct.drx_running_state_t, %struct.drx_running_state_t }
%struct.drx_config_t = type { i8, i32, i32, i32, i32, i32, i32, i32, i8, i32, i32 }
%struct.drx_running_state_t = type { i8, i8, %struct.nstime_t, i64, i16, i16, i64, i64, [8 x i64], [8 x i64], i64 }

@mac_lte_ue_parameters = internal global ptr null, align 8

; Function Attrs: null_pointer_is_valid sspstrong uwtable
define hidden void @set_mac_lte_extended_bsr_sizes(i16 noundef zeroext %0, i1 noundef zeroext %1, ptr noundef %2) #0 {
  %4 = alloca i16, align 2
  %5 = alloca i8, align 1
  %6 = alloca ptr, align 8
  %7 = alloca ptr, align 8
  store i16 %0, ptr %4, align 2
  %8 = zext i1 %1 to i8
  store i8 %8, ptr %5, align 1
  store ptr %2, ptr %6, align 8
  %9 = load ptr, ptr %6, align 8
  %10 = getelementptr inbounds nuw %struct._packet_info, ptr %9, i32 0, i32 8
  %11 = load ptr, ptr %10, align 8
  %12 = getelementptr inbounds nuw %struct._frame_data, ptr %11, i32 0, i32 11
  %13 = load i16, ptr %12, align 1
  %14 = lshr i16 %13, 3
  %15 = and i16 %14, 1
  %16 = zext i16 %15 to i32
  %17 = icmp ne i32 %16, 0
  br i1 %17, label %43, label %18

18:                                               ; preds = %3
  call void @llvm.lifetime.start.p0(i64 8, ptr %7) #16
  %19 = load ptr, ptr @mac_lte_ue_parameters, align 8
  %20 = load i16, ptr %4, align 2
  %21 = zext i16 %20 to i32
  %22 = zext i32 %21 to i64
  %23 = inttoptr i64 %22 to ptr
  %24 = call ptr @g_hash_table_lookup(ptr noundef %19, ptr noundef %23)
  store ptr %24, ptr %7, align 8
  %25 = load ptr, ptr %7, align 8
  %26 = icmp eq ptr %25, null
  br i1 %26, label %27, label %37

27:                                               ; preds = %18
  %28 = call ptr @wmem_file_scope()
  %29 = call noalias ptr @wmem_alloc0(ptr noundef %28, i64 noundef 440) #17
  store ptr %29, ptr %7, align 8
  %30 = load ptr, ptr @mac_lte_ue_parameters, align 8
  %31 = load i16, ptr %4, align 2
  %32 = zext i16 %31 to i32
  %33 = zext i32 %32 to i64
  %34 = inttoptr i64 %33 to ptr
  %35 = load ptr, ptr %7, align 8
  %36 = call i32 @g_hash_table_insert(ptr noundef %30, ptr noundef %34, ptr noundef %35)
  br label %37

37:                                               ; preds = %27, %18
  %38 = load i8, ptr %5, align 1, !range !9, !noundef !10
  %39 = trunc i8 %38 to i1
  %40 = load ptr, ptr %7, align 8
  %41 = getelementptr inbounds nuw %struct.ue_parameters_t, ptr %40, i32 0, i32 0
  %42 = zext i1 %39 to i8
  store i8 %42, ptr %41, align 8
  call void @llvm.lifetime.end.p0(i64 8, ptr %7) #16
  br label %43

43:                                               ; preds = %37, %3
  ret void
}