; Function Attrs: null_pointer_is_valid sspstrong uwtable
define hidden void @set_mac_lte_extended_bsr_sizes(i16 noundef zeroext %0, i1 noundef zeroext %1, ptr noundef readonly captures(none) %2) local_unnamed_addr #0 {
  %4 = zext i1 %1 to i8
  %5 = getelementptr inbounds nuw i8, ptr %2, i64 80
  %6 = load ptr, ptr %5, align 8
  %7 = getelementptr inbounds nuw i8, ptr %6, i64 57
  %8 = load i16, ptr %7, align 1
  %9 = and i16 %8, 8
  %.not = icmp eq i16 %9, 0
  br i1 %.not, label %10, label %22

10:                                               ; preds = %3
  %11 = load ptr, ptr @mac_lte_ue_parameters, align 8
  %12 = zext i16 %0 to i64
  %13 = inttoptr i64 %12 to ptr
  %14 = tail call ptr @g_hash_table_lookup(ptr noundef %11, ptr noundef %13)
  %15 = icmp eq ptr %14, null
  br i1 %15, label %16, label %21

16:                                               ; preds = %10
  %17 = tail call ptr @wmem_file_scope()
  %18 = tail call noalias dereferenceable_or_null(440) ptr @wmem_alloc0(ptr noundef %17, i64 noundef 440) #17
  %19 = load ptr, ptr @mac_lte_ue_parameters, align 8
  %20 = tail call i32 @g_hash_table_insert(ptr noundef %19, ptr noundef %13, ptr noundef %18)
  br label %21

21:                                               ; preds = %16, %10
  %.0 = phi ptr [ %18, %16 ], [ %14, %10 ]
  store i8 %4, ptr %.0, align 8
  br label %22

22:                                               ; preds = %21, %3
  ret void
}